Certificate:
    Data:
        Version: 3 (0x2)
        Serial Number: 4099 (0x1003)
    Signature Algorithm: sha256WithRSAEncryption
        Issuer: O=NodeOPCUA, CN=NodeOPCUA
        Validity
            Not Before: Apr 26 20:05:52 2018 GMT
            Not After : Apr 26 20:05:52 2019 GMT
        Subject: O=NodeOPCUA, CN=NodeOPCUA
        Subject Public Key Info:
            Public Key Algorithm: rsaEncryption
                Public-Key: (2048 bit)
                Modulus:
                    00:cc:2e:af:b4:d6:77:cc:ea:c3:e1:bc:07:0c:d8:
                    29:93:c0:82:c5:26:04:93:0c:eb:4e:25:31:b0:fa:
                    28:62:f7:67:16:d3:7d:65:e1:b9:56:10:a2:71:21:
                    42:fb:c2:74:9b:8f:a3:99:9d:a3:92:49:2c:3f:b7:
                    c9:c2:8a:75:b1:b3:c6:8f:30:34:80:1b:fd:91:d8:
                    7c:db:a9:c4:bb:8a:b6:06:c0:d2:86:f9:3f:96:05:
                    f3:7f:98:36:37:87:8d:9a:2c:09:54:82:80:11:3e:
                    35:a1:9d:d2:60:d4:30:6c:11:f5:5f:8e:3c:92:f9:
                    0e:30:14:58:e7:fa:7a:2f:2f:31:f8:35:29:03:11:
                    ce:4a:ee:9e:9c:5a:c8:24:01:6f:9d:17:73:b1:0d:
                    a8:f2:b1:bd:eb:03:11:1a:8a:fe:eb:08:9d:27:5c:
                    13:2b:cc:bf:69:03:c8:c3:8f:b0:7c:d3:cd:a8:62:
                    8a:bb:18:90:03:09:65:f0:5e:e2:21:ce:76:7c:4f:
                    d1:99:03:73:75:da:13:19:b3:2b:41:09:25:18:ef:
                    76:62:8e:4a:dd:92:c5:b3:e7:83:b6:c6:79:ae:d6:
                    bd:f6:d7:f7:46:49:5c:eb:e6:1c:ce:93:94:f9:b7:
                    3f:c2:35:d0:ce:d3:1a:83:85:a3:1c:71:8c:fe:05:
                    c4:f1
                Exponent: 65537 (0x10001)
        X509v3 extensions:
            X509v3 Basic Constraints: critical
                CA:FALSE
            X509v3 Subject Key Identifier: 
                AA:72:CF:9E:F2:24:B4:20:D3:0A:0E:B5:09:62:DD:60:99:CE:02:DC
            X509v3 Authority Key Identifier: 
                keyid:AA:72:CF:9E:F2:24:B4:20:D3:0A:0E:B5:09:62:DD:60:99:CE:02:DC
                DirName:/O=NodeOPCUA/CN=NodeOPCUA
                serial:10:03

            X509v3 Subject Alternative Name: 
                URI:urn:catalin-pc:NodeOPCUA-Client, DNS:localhost, DNS:catalin-pc
            Netscape Comment: 
                OpenSSL Generated Certificate
            X509v3 Key Usage: critical
                Digital Signature, Non Repudiation, Key Encipherment, Data Encipherment, Key Agreement, Certificate Sign
            X509v3 Extended Key Usage: critical
                TLS Web Server Authentication, TLS Web Client Authentication
    Signature Algorithm: sha256WithRSAEncryption
         80:75:d2:97:05:c6:07:70:5d:08:6e:3d:44:c3:a8:06:e8:82:
         b5:69:18:9c:8d:80:5f:ae:99:c2:cd:12:6d:9c:26:e2:25:f2:
         35:5b:aa:d5:59:11:4a:16:cd:e0:a7:ac:a5:c2:0a:72:0c:2a:
         94:0d:30:dc:2a:6e:59:4e:1a:1d:26:33:34:93:01:24:87:c5:
         77:01:cf:d3:dd:eb:a4:77:09:ce:08:64:e4:d5:bc:45:4c:2e:
         90:75:b2:5e:c5:08:53:0c:0f:c8:23:ae:73:80:c8:97:82:9e:
         7f:98:86:de:56:6e:a8:35:8e:93:cd:7d:fa:87:71:f6:ae:c8:
         04:79:62:cc:a2:ae:24:2d:62:44:7c:44:f6:9a:b4:65:83:4a:
         b7:37:c8:18:85:20:b8:a0:34:89:9d:52:a0:06:57:90:40:7c:
         2b:c4:8e:e7:92:76:a9:67:12:06:5e:08:e1:78:f4:b4:44:ea:
         f8:98:b7:e1:25:ed:e8:bd:6d:7e:01:17:73:48:a8:d4:a2:e3:
         d5:23:e6:49:74:d8:6e:f6:d3:fe:94:2f:bb:f2:87:0d:81:9f:
         0c:0b:2c:7c:06:89:e6:eb:90:ce:2b:6a:9d:4b:a5:d6:6d:b0:
         20:b6:3a:81:2e:ef:88:c0:87:5d:c6:b5:4b:a5:57:54:f9:12:
         52:53:05:80
-----BEGIN CERTIFICATE-----
MIID+TCCAuGgAwIBAgICEAMwDQYJKoZIhvcNAQELBQAwKDESMBAGA1UEChMJTm9k
ZU9QQ1VBMRIwEAYDVQQDEwlOb2RlT1BDVUEwIhgPMjAxODA0MjYyMDA1NTJaGA8y
MDE5MDQyNjIwMDU1MlowKDESMBAGA1UEChMJTm9kZU9QQ1VBMRIwEAYDVQQDEwlO
b2RlT1BDVUEwggEiMA0GCSqGSIb3DQEBAQUAA4IBDwAwggEKAoIBAQDMLq+01nfM
6sPhvAcM2CmTwILFJgSTDOtOJTGw+ihi92cW031l4blWEKJxIUL7wnSbj6OZnaOS
SSw/t8nCinWxs8aPMDSAG/2R2HzbqcS7irYGwNKG+T+WBfN/mDY3h42aLAlUgoAR
PjWhndJg1DBsEfVfjjyS+Q4wFFjn+novLzH4NSkDEc5K7p6cWsgkAW+dF3OxDajy
sb3rAxEaiv7rCJ0nXBMrzL9pA8jDj7B8082oYoq7GJADCWXwXuIhznZ8T9GZA3N1
2hMZsytBCSUY73ZijkrdksWz54O2xnmu1r321/dGSVzr5hzOk5T5tz/CNdDO0xqD
haMccYz+BcTxAgMBAAGjggEnMIIBIzAMBgNVHRMBAf8EAjAAMB0GA1UdDgQWBBSq
cs+e8iS0INMKDrUJYt1gmc4C3DBRBgNVHSMESjBIgBSqcs+e8iS0INMKDrUJYt1g
mc4C3KEspCowKDESMBAGA1UEChMJTm9kZU9QQ1VBMRIwEAYDVQQDEwlOb2RlT1BD
VUGCAhADMEEGA1UdEQQ6MDiGH3VybjpjYXRhbGluLXBjOk5vZGVPUENVQS1DbGll
bnSCCWxvY2FsaG9zdIIKY2F0YWxpbi1wYzAsBglghkgBhvhCAQ0EHxYdT3BlblNT
TCBHZW5lcmF0ZWQgQ2VydGlmaWNhdGUwDgYDVR0PAQH/BAQDAgL8MCAGA1UdJQEB
/wQWMBQGCCsGAQUFBwMBBggrBgEFBQcDAjANBgkqhkiG9w0BAQsFAAOCAQEAgHXS
lwXGB3BdCG49RMOoBuiCtWkYnI2AX66Zws0SbZwm4iXyNVuq1VkRShbN4KespcIK
cgwqlA0w3CpuWU4aHSYzNJMBJIfFdwHP093rpHcJzghk5NW8RUwukHWyXsUIUwwP
yCOuc4DIl4Kef5iG3lZuqDWOk819+odx9q7IBHlizKKuJC1iRHxE9pq0ZYNKtzfI
GIUguKA0iZ1SoAZXkEB8K8SO55J2qWcSBl4I4Xj0tETq+Ji34SXt6L1tfgEXc0io
1KLj1SPmSXTYbvbT/pQvu/KHDYGfDAssfAaJ5uuQzitqnUul1m2wILY6gS7viMCH
Xca1S6VXVPkSUlMFgA==
-----END CERTIFICATE-----
